; Function Attrs: mustprogress null_pointer_is_valid sspstrong uwtable
define void @_ZN15RtpPlayerDialog23on_actionPlay_triggeredEv(ptr noundef readonly align 8 captures(none) dereferenceable_or_null(472) %0) local_unnamed_addr #0 align 2 {
  %2 = getelementptr inbounds nuw i8, ptr %0, i64 144
  %3 = load ptr, ptr %2, align 8
  %4 = getelementptr inbounds nuw i8, ptr %3, i64 344
  %5 = load ptr, ptr %4, align 8
  %6 = getelementptr inbounds nuw i8, ptr %5, i64 32
  %7 = load ptr, ptr %6, align 8
  %8 = getelementptr inbounds nuw i8, ptr %7, i64 8
  %9 = load i32, ptr %8, align 8
  %10 = and i32 %9, 1
  %.not.i = icmp eq i32 %10, 0
  br i1 %.not.i, label %.sink.split, label %11

11:                                               ; preds = %1
  %12 = getelementptr inbounds nuw i8, ptr %3, i64 352
  %13 = load ptr, ptr %12, align 8
  %14 = getelementptr inbounds nuw i8, ptr %13, i64 32
  %15 = load ptr, ptr %14, align 8
  %16 = getelementptr inbounds nuw i8, ptr %15, i64 8
  %17 = load i32, ptr %16, align 8
  %18 = and i32 %17, 1
  %.not.i1 = icmp eq i32 %18, 0
  br i1 %.not.i1, label %.sink.split, label %19

.sink.split:                                      ; preds = %11, %1
  %.sink = phi ptr [ %5, %1 ], [ %13, %11 ]
  tail call void @_ZN15QAbstractButton12animateClickEv(ptr noundef align 8 dereferenceable_or_null(40) %.sink)
  br label %19

19:                                               ; preds = %.sink.split, %11
  ret void
}